; Function Attrs: mustprogress uwtable
define hidden noundef nonnull align 8 dereferenceable(8) ptr @_ZNK11proto_model12get_universeEP4sort(ptr noundef nonnull align 8 dereferenceable(177) %this, ptr noundef %s) unnamed_addr #3 align 2 {
entry:
  %m_tmp = getelementptr inbounds i8, ptr %this, i64 144
  %0 = load ptr, ptr %m_tmp, align 8
  %tobool.not.i = icmp eq ptr %0, null
  br i1 %tobool.not.i, label %_ZN6vectorIP4exprLb0EjE5resetEv.exit, label %if.then.i

if.then.i:                                        ; preds = %entry
  %arrayidx.i = getelementptr inbounds i8, ptr %0, i64 -4
  store i32 0, ptr %arrayidx.i, align 4
  br label %_ZN6vectorIP4exprLb0EjE5resetEv.exit

_ZN6vectorIP4exprLb0EjE5resetEv.exit:             ; preds = %entry, %if.then.i
  %m_user_sort_factory.i = getelementptr inbounds i8, ptr %this, i64 112
  %1 = load ptr, ptr %m_user_sort_factory.i, align 8
  %call.i = tail call noundef nonnull align 8 dereferenceable(20) ptr @_ZNK17user_sort_factory18get_known_universeEP4sort(ptr noundef nonnull align 8 dereferenceable(136) %1, ptr noundef %s)
  %2 = load ptr, ptr %call.i, align 8
  %m_capacity.i = getelementptr inbounds i8, ptr %call.i, i64 8
  %3 = load i32, ptr %m_capacity.i, align 8
  %idx.ext.i = zext i32 %3 to i64
  %add.ptr.i = getelementptr inbounds %class.obj_hash_entry.87, ptr %2, i64 %idx.ext.i
  %cmp.not2.i.i.i = icmp eq i32 %3, 0
  br i1 %cmp.not2.i.i.i, label %_ZNK14core_hashtableI14obj_hash_entryI4exprE12obj_ptr_hashIS1_E6ptr_eqIS1_EE5beginEv.exit, label %land.rhs.i.i.i

land.rhs.i.i.i:                                   ; preds = %_ZN6vectorIP4exprLb0EjE5resetEv.exit, %while.body.i.i.i
  %retval.sroa.0.0.i = phi ptr [ %incdec.ptr.i.i.i, %while.body.i.i.i ], [ %2, %_ZN6vectorIP4exprLb0EjE5resetEv.exit ]
  %4 = load ptr, ptr %retval.sroa.0.0.i, align 8
  %switch.i.i.i = icmp ult ptr %4, inttoptr (i64 2 to ptr)
  br i1 %switch.i.i.i, label %while.body.i.i.i, label %_ZNK14core_hashtableI14obj_hash_entryI4exprE12obj_ptr_hashIS1_E6ptr_eqIS1_EE5beginEv.exit

while.body.i.i.i:                                 ; preds = %land.rhs.i.i.i
  %incdec.ptr.i.i.i = getelementptr inbounds i8, ptr %retval.sroa.0.0.i, i64 8
  %cmp.not.i.i.i = icmp eq ptr %incdec.ptr.i.i.i, %add.ptr.i
  br i1 %cmp.not.i.i.i, label %for.end, label %land.rhs.i.i.i, !llvm.loop !22

_ZNK14core_hashtableI14obj_hash_entryI4exprE12obj_ptr_hashIS1_E6ptr_eqIS1_EE5beginEv.exit: ; preds = %land.rhs.i.i.i, %_ZN6vectorIP4exprLb0EjE5resetEv.exit
  %retval.sroa.0.1.i = phi ptr [ %2, %_ZN6vectorIP4exprLb0EjE5resetEv.exit ], [ %retval.sroa.0.0.i, %land.rhs.i.i.i ]
  %cmp.i.not16 = icmp eq ptr %retval.sroa.0.1.i, %add.ptr.i
  br i1 %cmp.i.not16, label %for.end, label %for.body

for.body:                                         ; preds = %_ZNK14core_hashtableI14obj_hash_entryI4exprE12obj_ptr_hashIS1_E6ptr_eqIS1_EE5beginEv.exit, %_ZN14core_hashtableI14obj_hash_entryI4exprE12obj_ptr_hashIS1_E6ptr_eqIS1_EE8iteratorppEv.exit
  %__begin1.sroa.0.017 = phi ptr [ %__begin1.sroa.0.1, %_ZN14core_hashtableI14obj_hash_entryI4exprE12obj_ptr_hashIS1_E6ptr_eqIS1_EE8iteratorppEv.exit ], [ %retval.sroa.0.1.i, %_ZNK14core_hashtableI14obj_hash_entryI4exprE12obj_ptr_hashIS1_E6ptr_eqIS1_EE5beginEv.exit ]
  %5 = load ptr, ptr %__begin1.sroa.0.017, align 8
  %6 = load ptr, ptr %m_tmp, align 8
  %cmp.i9 = icmp eq ptr %6, null
  br i1 %cmp.i9, label %if.then.i13, label %lor.lhs.false.i

lor.lhs.false.i:                                  ; preds = %for.body
  %arrayidx.i10 = getelementptr inbounds i8, ptr %6, i64 -4
  %7 = load i32, ptr %arrayidx.i10, align 4
  %arrayidx4.i = getelementptr inbounds i8, ptr %6, i64 -8
  %8 = load i32, ptr %arrayidx4.i, align 4
  %cmp5.i = icmp eq i32 %7, %8
  br i1 %cmp5.i, label %if.then.i13, label %_ZN6vectorIP4exprLb0EjE9push_backERKS1_.exit

if.then.i13:                                      ; preds = %lor.lhs.false.i, %for.body
  tail call void @_ZN6vectorIP4exprLb0EjE13expand_vectorEv(ptr noundef nonnull align 8 dereferenceable(8) %m_tmp)
  %.pre.i = load ptr, ptr %m_tmp, align 8
  %arrayidx8.phi.trans.insert.i = getelementptr inbounds i8, ptr %.pre.i, i64 -4
  %.pre1.i = load i32, ptr %arrayidx8.phi.trans.insert.i, align 4
  br label %_ZN6vectorIP4exprLb0EjE9push_backERKS1_.exit

_ZN6vectorIP4exprLb0EjE9push_backERKS1_.exit:     ; preds = %lor.lhs.false.i, %if.then.i13
  %9 = phi i32 [ %.pre1.i, %if.then.i13 ], [ %7, %lor.lhs.false.i ]
  %10 = phi ptr [ %.pre.i, %if.then.i13 ], [ %6, %lor.lhs.false.i ]
  %idx.ext.i11 = zext i32 %9 to i64
  %add.ptr.i12 = getelementptr inbounds ptr, ptr %10, i64 %idx.ext.i11
  store ptr %5, ptr %add.ptr.i12, align 8
  %11 = load ptr, ptr %m_tmp, align 8
  %arrayidx10.i = getelementptr inbounds i8, ptr %11, i64 -4
  %12 = load i32, ptr %arrayidx10.i, align 4
  %inc.i = add i32 %12, 1
  store i32 %inc.i, ptr %arrayidx10.i, align 4
  %incdec.ptr.i = getelementptr inbounds i8, ptr %__begin1.sroa.0.017, i64 8
  %cmp.not2.i.i = icmp eq ptr %incdec.ptr.i, %add.ptr.i
  br i1 %cmp.not2.i.i, label %for.end, label %land.rhs.i.i

land.rhs.i.i:                                     ; preds = %_ZN6vectorIP4exprLb0EjE9push_backERKS1_.exit, %while.body.i.i
  %__begin1.sroa.0.1 = phi ptr [ %incdec.ptr.i.i, %while.body.i.i ], [ %incdec.ptr.i, %_ZN6vectorIP4exprLb0EjE9push_backERKS1_.exit ]
  %13 = load ptr, ptr %__begin1.sroa.0.1, align 8
  %switch.i.i = icmp ult ptr %13, inttoptr (i64 2 to ptr)
  br i1 %switch.i.i, label %while.body.i.i, label %_ZN14core_hashtableI14obj_hash_entryI4exprE12obj_ptr_hashIS1_E6ptr_eqIS1_EE8iteratorppEv.exit

while.body.i.i:                                   ; preds = %land.rhs.i.i
  %incdec.ptr.i.i = getelementptr inbounds i8, ptr %__begin1.sroa.0.1, i64 8
  %cmp.not.i.i = icmp eq ptr %incdec.ptr.i.i, %add.ptr.i
  br i1 %cmp.not.i.i, label %for.end, label %land.rhs.i.i, !llvm.loop !22

_ZN14core_hashtableI14obj_hash_entryI4exprE12obj_ptr_hashIS1_E6ptr_eqIS1_EE8iteratorppEv.exit: ; preds = %land.rhs.i.i
  %cmp.i.not = icmp eq ptr %__begin1.sroa.0.1, %add.ptr.i
  br i1 %cmp.i.not, label %for.end, label %for.body

for.end:                                          ; preds = %while.body.i.i.i, %_ZN6vectorIP4exprLb0EjE9push_backERKS1_.exit, %_ZN14core_hashtableI14obj_hash_entryI4exprE12obj_ptr_hashIS1_E6ptr_eqIS1_EE8iteratorppEv.exit, %while.body.i.i, %_ZNK14core_hashtableI14obj_hash_entryI4exprE12obj_ptr_hashIS1_E6ptr_eqIS1_EE5beginEv.exit
  ret ptr %m_tmp
}